; Function Attrs: nounwind uwtable
define internal void @my_DefaultHandlerExpandHandler(ptr noundef captures(none) %0, ptr noundef %1, i32 noundef %2) #0 {
  %4 = getelementptr i8, ptr %0, i64 72
  %.val = load ptr, ptr %4, align 8, !tbaa !36
  %5 = getelementptr i8, ptr %.val, i64 96
  %6 = load ptr, ptr %5, align 8, !tbaa !14
  %.not32 = icmp eq ptr %6, null
  br i1 %.not32, label %Py_DECREF.exit, label %7

7:                                                ; preds = %3
  %8 = tail call ptr @PyErr_Occurred() #8
  %.not16 = icmp eq ptr %8, null
  br i1 %.not16, label %9, label %Py_DECREF.exit

9:                                                ; preds = %7
  %10 = getelementptr inbounds nuw i8, ptr %0, i64 40
  %11 = load ptr, ptr %10, align 8, !tbaa !29
  %12 = icmp eq ptr %11, null
  br i1 %12, label %flush_character_buffer.exit.thread, label %13

13:                                               ; preds = %9
  %14 = getelementptr inbounds nuw i8, ptr %0, i64 52
  %15 = load i32, ptr %14, align 4, !tbaa !35
  %16 = icmp eq i32 %15, 0
  br i1 %16, label %flush_character_buffer.exit.thread, label %flush_character_buffer.exit

flush_character_buffer.exit:                      ; preds = %13
  %17 = tail call fastcc i32 @call_character_handler(ptr noundef nonnull %0, ptr noundef nonnull %11, i32 noundef %15)
  store i32 0, ptr %14, align 4, !tbaa !35
  %18 = icmp slt i32 %17, 0
  br i1 %18, label %Py_DECREF.exit, label %flush_character_buffer.exit.thread

flush_character_buffer.exit.thread:               ; preds = %9, %13, %flush_character_buffer.exit
  %19 = icmp eq ptr %1, null
  br i1 %19, label %conv_string_len_to_unicode.exit, label %20

20:                                               ; preds = %flush_character_buffer.exit.thread
  %21 = sext i32 %2 to i64
  %22 = tail call ptr @PyUnicode_DecodeUTF8(ptr noundef nonnull %1, i64 noundef %21, ptr noundef nonnull @.str.42) #8
  br label %conv_string_len_to_unicode.exit

conv_string_len_to_unicode.exit:                  ; preds = %flush_character_buffer.exit.thread, %20
  %.0.i21 = phi ptr [ %22, %20 ], [ @_Py_NoneStruct, %flush_character_buffer.exit.thread ]
  %23 = tail call ptr (ptr, ...) @Py_BuildValue(ptr noundef nonnull @.str.44, ptr noundef %.0.i21) #8
  %.not17 = icmp eq ptr %23, null
  br i1 %.not17, label %24, label %47

24:                                               ; preds = %conv_string_len_to_unicode.exit
  %25 = load ptr, ptr @handler_info, align 16, !tbaa !40
  %.not15.i.i = icmp eq ptr %25, null
  br i1 %.not15.i.i, label %flag_error.exit, label %.lr.ph.i.i

.lr.ph.i.i:                                       ; preds = %24
  %26 = getelementptr inbounds nuw i8, ptr %0, i64 16
  br label %.lr.ph.split.us.i.i

.lr.ph.split.us.i.i:                              ; preds = %Py_DECREF.exit.us.i.i, %.lr.ph.i.i
  %27 = phi ptr [ %43, %Py_DECREF.exit.us.i.i ], [ @handler_info, %.lr.ph.i.i ]
  %28 = phi i64 [ %42, %Py_DECREF.exit.us.i.i ], [ 0, %.lr.ph.i.i ]
  %.016.us.i.i = phi i32 [ %41, %Py_DECREF.exit.us.i.i ], [ 0, %.lr.ph.i.i ]
  %29 = load ptr, ptr %4, align 8, !tbaa !36
  %30 = getelementptr ptr, ptr %29, i64 %28
  %31 = load ptr, ptr %30, align 8, !tbaa !14
  %.not14.us.i.i = icmp eq ptr %31, null
  br i1 %.not14.us.i.i, label %Py_DECREF.exit.us.i.i, label %32

32:                                               ; preds = %.lr.ph.split.us.i.i
  store ptr null, ptr %30, align 8, !tbaa !14
  %33 = load i32, ptr %31, align 8, !tbaa !13
  %.not.i.us.i.i = icmp sgt i32 %33, -1
  br i1 %.not.i.us.i.i, label %34, label %Py_DECREF.exit.us.i.i

34:                                               ; preds = %32
  %35 = add nsw i32 %33, -1
  store i32 %35, ptr %31, align 8, !tbaa !13
  %36 = icmp eq i32 %35, 0
  br i1 %36, label %37, label %Py_DECREF.exit.us.i.i

37:                                               ; preds = %34
  tail call void @_Py_Dealloc(ptr noundef nonnull %31) #8
  br label %Py_DECREF.exit.us.i.i

Py_DECREF.exit.us.i.i:                            ; preds = %37, %34, %32, %.lr.ph.split.us.i.i
  %38 = getelementptr inbounds nuw i8, ptr %27, i64 8
  %39 = load ptr, ptr %38, align 8, !tbaa !56
  %40 = load ptr, ptr %26, align 8, !tbaa !39
  tail call void %39(ptr noundef %40, ptr noundef null) #8
  %41 = add i32 %.016.us.i.i, 1
  %42 = sext i32 %41 to i64
  %43 = getelementptr [64 x %struct.HandlerInfo], ptr @handler_info, i64 0, i64 %42
  %44 = load ptr, ptr %43, align 16, !tbaa !40
  %.not.us.i.i = icmp eq ptr %44, null
  br i1 %.not.us.i.i, label %flag_error.exit, label %.lr.ph.split.us.i.i, !llvm.loop !45

flag_error.exit:                                  ; preds = %Py_DECREF.exit.us.i.i, %24
  %45 = getelementptr inbounds nuw i8, ptr %0, i64 16
  %46 = load ptr, ptr %45, align 8, !tbaa !39
  tail call void @PyExpat_XML_SetExternalEntityRefHandler(ptr noundef %46, ptr noundef nonnull @error_external_entity_ref_handler) #8
  br label %Py_DECREF.exit

47:                                               ; preds = %conv_string_len_to_unicode.exit
  %48 = getelementptr inbounds nuw i8, ptr %0, i64 32
  store i32 1, ptr %48, align 8, !tbaa !60
  %49 = load ptr, ptr %4, align 8, !tbaa !36
  %50 = getelementptr i8, ptr %49, i64 96
  %51 = load ptr, ptr %50, align 8, !tbaa !14
  %52 = tail call ptr @PyObject_Call(ptr noundef %51, ptr noundef nonnull %23, ptr noundef null) #8
  %53 = icmp eq ptr %52, null
  br i1 %53, label %54, label %call_with_frame.exit

54:                                               ; preds = %47
  tail call void @_PyTraceback_Add(ptr noundef nonnull @.str.28, ptr noundef nonnull @.str.43, i32 noundef 657) #8
  %55 = getelementptr inbounds nuw i8, ptr %0, i64 16
  %56 = load ptr, ptr %55, align 8, !tbaa !39
  %57 = tail call i32 @PyExpat_XML_StopParser(ptr noundef %56, i8 noundef zeroext 0) #8
  br label %call_with_frame.exit

call_with_frame.exit:                             ; preds = %47, %54
  store i32 0, ptr %48, align 8, !tbaa !60
  %58 = load i32, ptr %23, align 8, !tbaa !13
  %.not.i18 = icmp sgt i32 %58, -1
  br i1 %.not.i18, label %59, label %Py_DECREF.exit19

59:                                               ; preds = %call_with_frame.exit
  %60 = add nsw i32 %58, -1
  store i32 %60, ptr %23, align 8, !tbaa !13
  %61 = icmp eq i32 %60, 0
  br i1 %61, label %62, label %Py_DECREF.exit19

62:                                               ; preds = %59
  tail call void @_Py_Dealloc(ptr noundef nonnull %23) #8
  br label %Py_DECREF.exit19

Py_DECREF.exit19:                                 ; preds = %call_with_frame.exit, %59, %62
  br i1 %53, label %63, label %86

63:                                               ; preds = %Py_DECREF.exit19
  %64 = load ptr, ptr @handler_info, align 16, !tbaa !40
  %.not15.i.i22 = icmp eq ptr %64, null
  br i1 %.not15.i.i22, label %flag_error.exit30, label %.lr.ph.i.i23

.lr.ph.i.i23:                                     ; preds = %63
  %65 = getelementptr inbounds nuw i8, ptr %0, i64 16
  br label %.lr.ph.split.us.i.i24

.lr.ph.split.us.i.i24:                            ; preds = %Py_DECREF.exit.us.i.i28, %.lr.ph.i.i23
  %66 = phi ptr [ %82, %Py_DECREF.exit.us.i.i28 ], [ @handler_info, %.lr.ph.i.i23 ]
  %67 = phi i64 [ %81, %Py_DECREF.exit.us.i.i28 ], [ 0, %.lr.ph.i.i23 ]
  %.016.us.i.i25 = phi i32 [ %80, %Py_DECREF.exit.us.i.i28 ], [ 0, %.lr.ph.i.i23 ]
  %68 = load ptr, ptr %4, align 8, !tbaa !36
  %69 = getelementptr ptr, ptr %68, i64 %67
  %70 = load ptr, ptr %69, align 8, !tbaa !14
  %.not14.us.i.i26 = icmp eq ptr %70, null
  br i1 %.not14.us.i.i26, label %Py_DECREF.exit.us.i.i28, label %71

71:                                               ; preds = %.lr.ph.split.us.i.i24
  store ptr null, ptr %69, align 8, !tbaa !14
  %72 = load i32, ptr %70, align 8, !tbaa !13
  %.not.i.us.i.i27 = icmp sgt i32 %72, -1
  br i1 %.not.i.us.i.i27, label %73, label %Py_DECREF.exit.us.i.i28

73:                                               ; preds = %71
  %74 = add nsw i32 %72, -1
  store i32 %74, ptr %70, align 8, !tbaa !13
  %75 = icmp eq i32 %74, 0
  br i1 %75, label %76, label %Py_DECREF.exit.us.i.i28

76:                                               ; preds = %73
  tail call void @_Py_Dealloc(ptr noundef nonnull %70) #8
  br label %Py_DECREF.exit.us.i.i28

Py_DECREF.exit.us.i.i28:                          ; preds = %76, %73, %71, %.lr.ph.split.us.i.i24
  %77 = getelementptr inbounds nuw i8, ptr %66, i64 8
  %78 = load ptr, ptr %77, align 8, !tbaa !56
  %79 = load ptr, ptr %65, align 8, !tbaa !39
  tail call void %78(ptr noundef %79, ptr noundef null) #8
  %80 = add i32 %.016.us.i.i25, 1
  %81 = sext i32 %80 to i64
  %82 = getelementptr [64 x %struct.HandlerInfo], ptr @handler_info, i64 0, i64 %81
  %83 = load ptr, ptr %82, align 16, !tbaa !40
  %.not.us.i.i29 = icmp eq ptr %83, null
  br i1 %.not.us.i.i29, label %flag_error.exit30, label %.lr.ph.split.us.i.i24, !llvm.loop !45

flag_error.exit30:                                ; preds = %Py_DECREF.exit.us.i.i28, %63
  %84 = getelementptr inbounds nuw i8, ptr %0, i64 16
  %85 = load ptr, ptr %84, align 8, !tbaa !39
  tail call void @PyExpat_XML_SetExternalEntityRefHandler(ptr noundef %85, ptr noundef nonnull @error_external_entity_ref_handler) #8
  br label %Py_DECREF.exit

86:                                               ; preds = %Py_DECREF.exit19
  %87 = load i32, ptr %52, align 8, !tbaa !13
  %.not.i = icmp sgt i32 %87, -1
  br i1 %.not.i, label %88, label %Py_DECREF.exit

88:                                               ; preds = %86
  %89 = add nsw i32 %87, -1
  store i32 %89, ptr %52, align 8, !tbaa !13
  %90 = icmp eq i32 %89, 0
  br i1 %90, label %91, label %Py_DECREF.exit

91:                                               ; preds = %88
  tail call void @_Py_Dealloc(ptr noundef nonnull %52) #8
  br label %Py_DECREF.exit

Py_DECREF.exit:                                   ; preds = %91, %88, %86, %3, %flush_character_buffer.exit, %7, %flag_error.exit30, %flag_error.exit
  ret void
}